target datalayout = "e-m:e-p270:32:32-p271:32:32-p272:64:64-i64:64-i128:128-f80:128-n8:16:32:64-S128"
target triple = "x86_64-pc-linux-gnu"

%struct.ForEachState = type { ptr, i32 }
%struct.Node = type { i32 }
%struct.List = type { i32, i32, i32, ptr, [0 x %union.ListCell] }
%union.ListCell = type { ptr }
%struct.PlannerInfo = type { i32, ptr, ptr, i32, ptr, ptr, ptr, ptr, i32, ptr, ptr, ptr, ptr, ptr, ptr, ptr, ptr, i32, ptr, ptr, ptr, ptr, ptr, i8, ptr, ptr, ptr, ptr, ptr, i32, ptr, ptr, ptr, ptr, ptr, ptr, ptr, i32, ptr, ptr, ptr, i32, ptr, ptr, ptr, ptr, ptr, ptr, [8 x ptr], [8 x ptr], ptr, ptr, ptr, ptr, ptr, ptr, ptr, double, double, double, i32, i8, i8, i8, i8, i8, i8, i8, i32, ptr, ptr, i32, i8, i8, i32, ptr, ptr, ptr, ptr, ptr, ptr, i8, ptr }
%struct.QualCost = type { double, double }
%struct.Expr = type { i32 }
%struct.SpecialJoinInfo = type { i32, ptr, ptr, ptr, ptr, i32, i32, ptr, ptr, ptr, ptr, i8, i8, i8, ptr, ptr }
%struct.RestrictInfo = type { i32, ptr, i8, i8, i8, i8, i8, i8, i32, i32, i32, ptr, ptr, ptr, ptr, ptr, ptr, ptr, i32, ptr, %struct.QualCost, double, double, ptr, ptr, ptr, ptr, ptr, ptr, i8, i32, double, double, double, double, i32, i32 }
%struct.OpExpr = type { %struct.Expr, i32, i32, i32, i8, i32, i32, ptr, i32 }
%struct.Const = type { %struct.Expr, i32, i32, i32, i32, i64, i8, i8, i32 }

; Function Attrs: inlinehint nounwind uwtable
define internal ptr @list_nth_cell(ptr noundef %0, i32 noundef %1) #5 {
  %3 = alloca ptr, align 8
  %4 = alloca i32, align 4
  store ptr %0, ptr %3, align 8
  store i32 %1, ptr %4, align 4
  %5 = load ptr, ptr %3, align 8
  %6 = getelementptr inbounds nuw %struct.List, ptr %5, i32 0, i32 3
  %7 = load ptr, ptr %6, align 8
  %8 = load i32, ptr %4, align 4
  %9 = sext i32 %8 to i64
  %10 = getelementptr inbounds %union.ListCell, ptr %7, i64 %9
  ret ptr %10
}

; Function Attrs: inlinehint nounwind uwtable
define internal i32 @list_length(ptr noundef %0) #5 {
  %2 = alloca ptr, align 8
  store ptr %0, ptr %2, align 8
  %3 = load ptr, ptr %2, align 8
  %4 = icmp ne ptr %3, null
  br i1 %4, label %5, label %9

5:                                                ; preds = %1
  %6 = load ptr, ptr %2, align 8
  %7 = getelementptr inbounds nuw %struct.List, ptr %6, i32 0, i32 1
  %8 = load i32, ptr %7, align 4
  br label %10

9:                                                ; preds = %1
  br label %10

10:                                               ; preds = %9, %5
  %11 = phi i32 [ %8, %5 ], [ 0, %9 ]
  ret i32 %11
}

; Function Attrs: inlinehint nounwind uwtable
define internal zeroext i1 @is_opclause(ptr noundef %0) #5 {
  %2 = alloca ptr, align 8
  store ptr %0, ptr %2, align 8
  %3 = load ptr, ptr %2, align 8
  %4 = icmp ne ptr %3, null
  br i1 %4, label %5, label %10

5:                                                ; preds = %1
  %6 = load ptr, ptr %2, align 8
  %7 = getelementptr inbounds nuw %struct.Node, ptr %6, i32 0, i32 0
  %8 = load i32, ptr %7, align 4
  %9 = icmp eq i32 %8, 17
  br label %10

10:                                               ; preds = %5, %1
  %11 = phi i1 [ false, %1 ], [ %9, %5 ]
  ret i1 %11
}

; Function Attrs: nounwind uwtable
define internal void @check_mergejoinable(ptr noundef %0) #0 {
  %2 = alloca ptr, align 8
  %3 = alloca ptr, align 8
  %4 = alloca i32, align 4
  %5 = alloca ptr, align 8
  %6 = alloca i32, align 4
  store ptr %0, ptr %2, align 8
  call void @llvm.lifetime.start.p0(i64 8, ptr %3) #6
  %7 = load ptr, ptr %2, align 8
  %8 = getelementptr inbounds nuw %struct.RestrictInfo, ptr %7, i32 0, i32 1
  %9 = load ptr, ptr %8, align 8
  store ptr %9, ptr %3, align 8
  call void @llvm.lifetime.start.p0(i64 4, ptr %4) #6
  call void @llvm.lifetime.start.p0(i64 8, ptr %5) #6
  %10 = load ptr, ptr %2, align 8
  %11 = getelementptr inbounds nuw %struct.RestrictInfo, ptr %10, i32 0, i32 4
  %12 = load i8, ptr %11, align 2, !range !6, !noundef !7
  %13 = trunc i8 %12 to i1
  br i1 %13, label %14, label %15

14:                                               ; preds = %1
  store i32 1, ptr %6, align 4
  br label %48

15:                                               ; preds = %1
  %16 = load ptr, ptr %3, align 8
  %17 = call zeroext i1 @is_opclause(ptr noundef %16)
  br i1 %17, label %19, label %18

18:                                               ; preds = %15
  store i32 1, ptr %6, align 4
  br label %48

19:                                               ; preds = %15
  %20 = load ptr, ptr %3, align 8
  %21 = getelementptr inbounds nuw %struct.OpExpr, ptr %20, i32 0, i32 7
  %22 = load ptr, ptr %21, align 8
  %23 = call i32 @list_length(ptr noundef %22)
  %24 = icmp ne i32 %23, 2
  br i1 %24, label %25, label %26

25:                                               ; preds = %19
  store i32 1, ptr %6, align 4
  br label %48

26:                                               ; preds = %19
  %27 = load ptr, ptr %3, align 8
  %28 = getelementptr inbounds nuw %struct.OpExpr, ptr %27, i32 0, i32 1
  %29 = load i32, ptr %28, align 4
  store i32 %29, ptr %4, align 4
  %30 = load ptr, ptr %3, align 8
  %31 = getelementptr inbounds nuw %struct.OpExpr, ptr %30, i32 0, i32 7
  %32 = load ptr, ptr %31, align 8
  %33 = call ptr @list_nth_cell(ptr noundef %32, i32 noundef 0)
  %34 = load ptr, ptr %33, align 8
  store ptr %34, ptr %5, align 8
  %35 = load i32, ptr %4, align 4
  %36 = load ptr, ptr %5, align 8
  %37 = call i32 @exprType(ptr noundef %36)
  %38 = call zeroext i1 @op_mergejoinable(i32 noundef %35, i32 noundef %37)
  br i1 %38, label %39, label %47

39:                                               ; preds = %26
  %40 = load ptr, ptr %2, align 8
  %41 = call zeroext i1 @contain_volatile_functions(ptr noundef %40)
  br i1 %41, label %47, label %42

42:                                               ; preds = %39
  %43 = load i32, ptr %4, align 4
  %44 = call ptr @get_mergejoin_opfamilies(i32 noundef %43)
  %45 = load ptr, ptr %2, align 8
  %46 = getelementptr inbounds nuw %struct.RestrictInfo, ptr %45, i32 0, i32 23
  store ptr %44, ptr %46, align 8
  br label %47

47:                                               ; preds = %42, %39, %26
  store i32 0, ptr %6, align 4
  br label %48

48:                                               ; preds = %47, %25, %18, %14
  call void @llvm.lifetime.end.p0(i64 8, ptr %5) #6
  call void @llvm.lifetime.end.p0(i64 4, ptr %4) #6
  call void @llvm.lifetime.end.p0(i64 8, ptr %3) #6
  %49 = load i32, ptr %6, align 4
  switch i32 %49, label %51 [
    i32 0, label %50
    i32 1, label %50
  ]

50:                                               ; preds = %48, %48
  ret void

51:                                               ; preds = %48
  unreachable
}

; Function Attrs: nounwind uwtable
define internal ptr @get_join_domain_min_rels(ptr noundef %0, ptr noundef %1) #0 {
  %3 = alloca ptr, align 8
  %4 = alloca ptr, align 8
  %5 = alloca ptr, align 8
  %6 = alloca ptr, align 8
  %7 = alloca ptr, align 8
  %8 = alloca i32, align 4
  %9 = alloca %struct.ForEachState, align 8
  %10 = alloca ptr, align 8
  store ptr %0, ptr %4, align 8
  store ptr %1, ptr %5, align 8
  call void @llvm.lifetime.start.p0(i64 8, ptr %6) #6
  %11 = load ptr, ptr %5, align 8
  %12 = call ptr @bms_copy(ptr noundef %11)
  store ptr %12, ptr %6, align 8
  call void @llvm.lifetime.start.p0(i64 8, ptr %7) #6
  %13 = load ptr, ptr %6, align 8
  %14 = load ptr, ptr %4, align 8
  %15 = getelementptr inbounds nuw %struct.PlannerInfo, ptr %14, i32 0, i32 13
  %16 = load ptr, ptr %15, align 8
  %17 = call zeroext i1 @bms_equal(ptr noundef %13, ptr noundef %16)
  br i1 %17, label %18, label %20

18:                                               ; preds = %2
  %19 = load ptr, ptr %6, align 8
  store ptr %19, ptr %3, align 8
  store i32 1, ptr %8, align 4
  br label %84

20:                                               ; preds = %2
  call void @llvm.lifetime.start.p0(i64 16, ptr %9) #6
  %21 = getelementptr inbounds nuw %struct.ForEachState, ptr %9, i32 0, i32 0
  %22 = load ptr, ptr %4, align 8
  %23 = getelementptr inbounds nuw %struct.PlannerInfo, ptr %22, i32 0, i32 28
  %24 = load ptr, ptr %23, align 8
  store ptr %24, ptr %21, align 8
  %25 = getelementptr inbounds nuw %struct.ForEachState, ptr %9, i32 0, i32 1
  store i32 0, ptr %25, align 8
  %26 = getelementptr i8, ptr %9, i64 12
  call void @llvm.memset.p0.i64(ptr align 4 %26, i8 0, i64 4, i1 false)
  br label %27

27:                                               ; preds = %78, %20
  %28 = getelementptr inbounds nuw %struct.ForEachState, ptr %9, i32 0, i32 0
  %29 = load ptr, ptr %28, align 8
  %30 = icmp ne ptr %29, null
  br i1 %30, label %31, label %48

31:                                               ; preds = %27
  %32 = getelementptr inbounds nuw %struct.ForEachState, ptr %9, i32 0, i32 1
  %33 = load i32, ptr %32, align 8
  %34 = getelementptr inbounds nuw %struct.ForEachState, ptr %9, i32 0, i32 0
  %35 = load ptr, ptr %34, align 8
  %36 = getelementptr inbounds nuw %struct.List, ptr %35, i32 0, i32 1
  %37 = load i32, ptr %36, align 4
  %38 = icmp slt i32 %33, %37
  br i1 %38, label %39, label %48

39:                                               ; preds = %31
  %40 = getelementptr inbounds nuw %struct.ForEachState, ptr %9, i32 0, i32 0
  %41 = load ptr, ptr %40, align 8
  %42 = getelementptr inbounds nuw %struct.List, ptr %41, i32 0, i32 3
  %43 = load ptr, ptr %42, align 8
  %44 = getelementptr inbounds nuw %struct.ForEachState, ptr %9, i32 0, i32 1
  %45 = load i32, ptr %44, align 8
  %46 = sext i32 %45 to i64
  %47 = getelementptr inbounds %union.ListCell, ptr %43, i64 %46
  store ptr %47, ptr %7, align 8
  br label %49

48:                                               ; preds = %31, %27
  store ptr null, ptr %7, align 8
  br label %49

49:                                               ; preds = %48, %39
  %50 = phi i32 [ 1, %39 ], [ 0, %48 ]
  %51 = icmp ne i32 %50, 0
  br i1 %51, label %53, label %52

52:                                               ; preds = %49
  store i32 2, ptr %8, align 4
  call void @llvm.lifetime.end.p0(i64 16, ptr %9) #6
  br label %82

53:                                               ; preds = %49
  call void @llvm.lifetime.start.p0(i64 8, ptr %10) #6
  %54 = load ptr, ptr %7, align 8
  %55 = load ptr, ptr %54, align 8
  store ptr %55, ptr %10, align 8
  %56 = load ptr, ptr %10, align 8
  %57 = getelementptr inbounds nuw %struct.SpecialJoinInfo, ptr %56, i32 0, i32 5
  %58 = load i32, ptr %57, align 8
  %59 = icmp eq i32 %58, 1
  br i1 %59, label %60, label %77

60:                                               ; preds = %53
  %61 = load ptr, ptr %10, align 8
  %62 = getelementptr inbounds nuw %struct.SpecialJoinInfo, ptr %61, i32 0, i32 6
  %63 = load i32, ptr %62, align 4
  %64 = load ptr, ptr %6, align 8
  %65 = call zeroext i1 @bms_is_member(i32 noundef %63, ptr noundef %64)
  br i1 %65, label %66, label %77

66:                                               ; preds = %60
  %67 = load ptr, ptr %6, align 8
  %68 = load ptr, ptr %10, align 8
  %69 = getelementptr inbounds nuw %struct.SpecialJoinInfo, ptr %68, i32 0, i32 6
  %70 = load i32, ptr %69, align 4
  %71 = call ptr @bms_del_member(ptr noundef %67, i32 noundef %70)
  store ptr %71, ptr %6, align 8
  %72 = load ptr, ptr %6, align 8
  %73 = load ptr, ptr %10, align 8
  %74 = getelementptr inbounds nuw %struct.SpecialJoinInfo, ptr %73, i32 0, i32 4
  %75 = load ptr, ptr %74, align 8
  %76 = call ptr @bms_del_members(ptr noundef %72, ptr noundef %75)
  store ptr %76, ptr %6, align 8
  br label %77

77:                                               ; preds = %66, %60, %53
  call void @llvm.lifetime.end.p0(i64 8, ptr %10) #6
  br label %78

78:                                               ; preds = %77
  %79 = getelementptr inbounds nuw %struct.ForEachState, ptr %9, i32 0, i32 1
  %80 = load i32, ptr %79, align 8
  %81 = add i32 %80, 1
  store i32 %81, ptr %79, align 8
  br label %27, !llvm.loop !34

82:                                               ; preds = %52
  %83 = load ptr, ptr %6, align 8
  store ptr %83, ptr %3, align 8
  store i32 1, ptr %8, align 4
  br label %84

84:                                               ; preds = %82, %18
  call void @llvm.lifetime.end.p0(i64 8, ptr %7) #6
  call void @llvm.lifetime.end.p0(i64 8, ptr %6) #6
  %85 = load ptr, ptr %3, align 8
  ret ptr %85
}

; Function Attrs: inlinehint nounwind uwtable
define internal zeroext i1 @DatumGetBool(i64 noundef %0) #5 {
  %2 = alloca i64, align 8
  store i64 %0, ptr %2, align 8
  %3 = load i64, ptr %2, align 8
  %4 = icmp ne i64 %3, 0
  ret i1 %4
}

; Function Attrs: nounwind uwtable
define dso_local ptr @process_implied_equality(ptr noundef %0, i32 noundef %1, i32 noundef %2, ptr noundef %3, ptr noundef %4, ptr noundef %5, i32 noundef %6, i1 noundef zeroext %7) #0 {
  %9 = alloca ptr, align 8
  %10 = alloca ptr, align 8
  %11 = alloca i32, align 4
  %12 = alloca i32, align 4
  %13 = alloca ptr, align 8
  %14 = alloca ptr, align 8
  %15 = alloca ptr, align 8
  %16 = alloca i32, align 4
  %17 = alloca i8, align 1
  %18 = alloca ptr, align 8
  %19 = alloca ptr, align 8
  %20 = alloca ptr, align 8
  %21 = alloca i8, align 1
  %22 = alloca ptr, align 8
  %23 = alloca i32, align 4
  %24 = alloca ptr, align 8
  store ptr %0, ptr %10, align 8
  store i32 %1, ptr %11, align 4
  store i32 %2, ptr %12, align 4
  store ptr %3, ptr %13, align 8
  store ptr %4, ptr %14, align 8
  store ptr %5, ptr %15, align 8
  store i32 %6, ptr %16, align 4
  %25 = zext i1 %7 to i8
  store i8 %25, ptr %17, align 1
  call void @llvm.lifetime.start.p0(i64 8, ptr %18) #6
  call void @llvm.lifetime.start.p0(i64 8, ptr %19) #6
  call void @llvm.lifetime.start.p0(i64 8, ptr %20) #6
  call void @llvm.lifetime.start.p0(i64 1, ptr %21) #6
  store i8 0, ptr %21, align 1
  %26 = load i32, ptr %11, align 4
  %27 = load ptr, ptr %13, align 8
  %28 = call ptr @copyObjectImpl(ptr noundef %27)
  %29 = load ptr, ptr %14, align 8
  %30 = call ptr @copyObjectImpl(ptr noundef %29)
  %31 = load i32, ptr %12, align 4
  %32 = call ptr @make_opclause(i32 noundef %26, i32 noundef 16, i1 noundef zeroext false, ptr noundef %28, ptr noundef %30, i32 noundef 0, i32 noundef %31)
  store ptr %32, ptr %19, align 8
  %33 = load i8, ptr %17, align 1, !range !6, !noundef !7
  %34 = trunc i8 %33 to i1
  br i1 %34, label %35, label %63

35:                                               ; preds = %8
  %36 = load ptr, ptr %10, align 8
  %37 = load ptr, ptr %19, align 8
  %38 = call ptr @eval_const_expressions(ptr noundef %36, ptr noundef %37)
  store ptr %38, ptr %19, align 8
  %39 = load ptr, ptr %19, align 8
  %40 = icmp ne ptr %39, null
  br i1 %40, label %41, label %62

41:                                               ; preds = %35
  %42 = load ptr, ptr %19, align 8
  %43 = getelementptr inbounds nuw %struct.Node, ptr %42, i32 0, i32 0
  %44 = load i32, ptr %43, align 4
  %45 = icmp eq i32 %44, 7
  br i1 %45, label %46, label %62

46:                                               ; preds = %41
  call void @llvm.lifetime.start.p0(i64 8, ptr %22) #6
  %47 = load ptr, ptr %19, align 8
  store ptr %47, ptr %22, align 8
  %48 = load ptr, ptr %22, align 8
  %49 = getelementptr inbounds nuw %struct.Const, ptr %48, i32 0, i32 6
  %50 = load i8, ptr %49, align 8, !range !6, !noundef !7
  %51 = trunc i8 %50 to i1
  br i1 %51, label %58, label %52

52:                                               ; preds = %46
  %53 = load ptr, ptr %22, align 8
  %54 = getelementptr inbounds nuw %struct.Const, ptr %53, i32 0, i32 5
  %55 = load i64, ptr %54, align 8
  %56 = call zeroext i1 @DatumGetBool(i64 noundef %55)
  br i1 %56, label %57, label %58

57:                                               ; preds = %52
  store ptr null, ptr %9, align 8
  store i32 1, ptr %23, align 4
  br label %59

58:                                               ; preds = %52, %46
  store i32 0, ptr %23, align 4
  br label %59

59:                                               ; preds = %58, %57
  call void @llvm.lifetime.end.p0(i64 8, ptr %22) #6
  %60 = load i32, ptr %23, align 4
  switch i32 %60, label %98 [
    i32 0, label %61
  ]

61:                                               ; preds = %59
  br label %62

62:                                               ; preds = %61, %41, %35
  br label %63

63:                                               ; preds = %62, %8
  %64 = load ptr, ptr %10, align 8
  %65 = load ptr, ptr %19, align 8
  %66 = call ptr @pull_varnos(ptr noundef %64, ptr noundef %65)
  store ptr %66, ptr %20, align 8
  %67 = load ptr, ptr %20, align 8
  %68 = icmp eq ptr %67, null
  br i1 %68, label %69, label %75

69:                                               ; preds = %63
  %70 = load ptr, ptr %10, align 8
  %71 = load ptr, ptr %15, align 8
  %72 = call ptr @get_join_domain_min_rels(ptr noundef %70, ptr noundef %71)
  store ptr %72, ptr %20, align 8
  store i8 1, ptr %21, align 1
  %73 = load ptr, ptr %10, align 8
  %74 = getelementptr inbounds nuw %struct.PlannerInfo, ptr %73, i32 0, i32 64
  store i8 1, ptr %74, align 1
  br label %75

75:                                               ; preds = %69, %63
  %76 = load ptr, ptr %10, align 8
  %77 = load ptr, ptr %19, align 8
  %78 = load i8, ptr %21, align 1, !range !6, !noundef !7
  %79 = trunc i8 %78 to i1
  %80 = load i32, ptr %16, align 4
  %81 = load ptr, ptr %20, align 8
  %82 = call ptr @make_restrictinfo(ptr noundef %76, ptr noundef %77, i1 noundef zeroext true, i1 noundef zeroext false, i1 noundef zeroext false, i1 noundef zeroext %79, i32 noundef %80, ptr noundef %81, ptr noundef null, ptr noundef null)
  store ptr %82, ptr %18, align 8
  %83 = load ptr, ptr %20, align 8
  %84 = call i32 @bms_membership(ptr noundef %83)
  %85 = icmp eq i32 %84, 2
  br i1 %85, label %86, label %93

86:                                               ; preds = %75
  call void @llvm.lifetime.start.p0(i64 8, ptr %24) #6
  %87 = load ptr, ptr %19, align 8
  %88 = call ptr @pull_var_clause(ptr noundef %87, i32 noundef 26)
  store ptr %88, ptr %24, align 8
  %89 = load ptr, ptr %10, align 8
  %90 = load ptr, ptr %24, align 8
  %91 = load ptr, ptr %20, align 8
  call void @add_vars_to_targetlist(ptr noundef %89, ptr noundef %90, ptr noundef %91)
  %92 = load ptr, ptr %24, align 8
  call void @list_free(ptr noundef %92)
  call void @llvm.lifetime.end.p0(i64 8, ptr %24) #6
  br label %93

93:                                               ; preds = %86, %75
  %94 = load ptr, ptr %18, align 8
  call void @check_mergejoinable(ptr noundef %94)
  %95 = load ptr, ptr %10, align 8
  %96 = load ptr, ptr %18, align 8
  call void @distribute_restrictinfo_to_rels(ptr noundef %95, ptr noundef %96)
  %97 = load ptr, ptr %18, align 8
  store ptr %97, ptr %9, align 8
  store i32 1, ptr %23, align 4
  br label %98

98:                                               ; preds = %93, %59
  call void @llvm.lifetime.end.p0(i64 1, ptr %21) #6
  call void @llvm.lifetime.end.p0(i64 8, ptr %20) #6
  call void @llvm.lifetime.end.p0(i64 8, ptr %19) #6
  call void @llvm.lifetime.end.p0(i64 8, ptr %18) #6
  %99 = load ptr, ptr %9, align 8
  ret ptr %99
}