; Function Attrs: nounwind uwtable
define dso_local ptr @process_implied_equality(ptr noundef %0, i32 noundef %1, i32 noundef %2, ptr noundef %3, ptr noundef %4, ptr noundef %5, i32 noundef %6, i1 noundef zeroext %7) local_unnamed_addr #0 {
  %9 = tail call ptr @copyObjectImpl(ptr noundef %3) #7
  %10 = tail call ptr @copyObjectImpl(ptr noundef %4) #7
  %11 = tail call ptr @make_opclause(i32 noundef %1, i32 noundef 16, i1 noundef zeroext false, ptr noundef %9, ptr noundef %10, i32 noundef 0, i32 noundef %2) #7
  br i1 %7, label %12, label %.critedge

12:                                               ; preds = %8
  %13 = tail call ptr @eval_const_expressions(ptr noundef %0, ptr noundef %11) #7
  %.not = icmp eq ptr %13, null
  br i1 %.not, label %.critedge, label %14

14:                                               ; preds = %12
  %15 = load i32, ptr %13, align 4
  %16 = icmp eq i32 %15, 7
  br i1 %16, label %17, label %.critedge

17:                                               ; preds = %14
  %18 = getelementptr inbounds nuw i8, ptr %13, i64 32
  %19 = load i8, ptr %18, align 8, !range !4, !noundef !5
  %20 = trunc nuw i8 %19 to i1
  br i1 %20, label %.critedge, label %21

21:                                               ; preds = %17
  %22 = getelementptr inbounds nuw i8, ptr %13, i64 24
  %23 = load i64, ptr %22, align 8
  %.not41 = icmp eq i64 %23, 0
  br i1 %.not41, label %.critedge, label %90

.critedge:                                        ; preds = %17, %21, %12, %14, %8
  %.035 = phi ptr [ %13, %14 ], [ null, %12 ], [ %11, %8 ], [ %13, %21 ], [ %13, %17 ]
  %24 = tail call ptr @pull_varnos(ptr noundef %0, ptr noundef %.035) #7
  %25 = icmp eq ptr %24, null
  br i1 %25, label %26, label %59

26:                                               ; preds = %.critedge
  %27 = tail call ptr @bms_copy(ptr noundef %5) #7
  %28 = getelementptr inbounds nuw i8, ptr %0, i64 104
  %29 = load ptr, ptr %28, align 8
  %30 = tail call zeroext i1 @bms_equal(ptr noundef %27, ptr noundef %29) #7
  br i1 %30, label %get_join_domain_min_rels.exit, label %31

31:                                               ; preds = %26
  %32 = getelementptr inbounds nuw i8, ptr %0, i64 224
  %33 = load ptr, ptr %32, align 8
  %34 = getelementptr inbounds nuw i8, ptr %33, i64 4
  %.not.i = icmp eq ptr %33, null
  br i1 %.not.i, label %get_join_domain_min_rels.exit, label %.lr.ph.i

.lr.ph.i:                                         ; preds = %31
  %35 = getelementptr inbounds nuw i8, ptr %33, i64 16
  %36 = load i32, ptr %34, align 4
  %37 = icmp sgt i32 %36, 0
  br i1 %37, label %.lr.ph32.i, label %get_join_domain_min_rels.exit

.lr.ph32.i:                                       ; preds = %.lr.ph.i, %54
  %indvars.iv.i = phi i64 [ %indvars.iv.next.i, %54 ], [ 0, %.lr.ph.i ]
  %.0192630.i = phi ptr [ %.1.i, %54 ], [ %27, %.lr.ph.i ]
  %38 = load ptr, ptr %35, align 8
  %39 = getelementptr inbounds nuw %union.ListCell, ptr %38, i64 %indvars.iv.i
  %40 = load ptr, ptr %39, align 8
  %41 = getelementptr inbounds nuw i8, ptr %40, i64 40
  %42 = load i32, ptr %41, align 8
  %43 = icmp eq i32 %42, 1
  br i1 %43, label %44, label %54

44:                                               ; preds = %.lr.ph32.i
  %45 = getelementptr inbounds nuw i8, ptr %40, i64 44
  %46 = load i32, ptr %45, align 4
  %47 = tail call zeroext i1 @bms_is_member(i32 noundef %46, ptr noundef %.0192630.i) #7
  br i1 %47, label %48, label %54

48:                                               ; preds = %44
  %49 = load i32, ptr %45, align 4
  %50 = tail call ptr @bms_del_member(ptr noundef %.0192630.i, i32 noundef %49) #7
  %51 = getelementptr inbounds nuw i8, ptr %40, i64 32
  %52 = load ptr, ptr %51, align 8
  %53 = tail call ptr @bms_del_members(ptr noundef %50, ptr noundef %52) #7
  br label %54

54:                                               ; preds = %48, %44, %.lr.ph32.i
  %.1.i = phi ptr [ %53, %48 ], [ %.0192630.i, %44 ], [ %.0192630.i, %.lr.ph32.i ]
  %indvars.iv.next.i = add nuw nsw i64 %indvars.iv.i, 1
  %55 = load i32, ptr %34, align 4
  %56 = sext i32 %55 to i64
  %57 = icmp slt i64 %indvars.iv.next.i, %56
  br i1 %57, label %.lr.ph32.i, label %get_join_domain_min_rels.exit

get_join_domain_min_rels.exit:                    ; preds = %54, %26, %31, %.lr.ph.i
  %.0.i = phi ptr [ %27, %26 ], [ %27, %31 ], [ %27, %.lr.ph.i ], [ %.1.i, %54 ]
  %58 = getelementptr inbounds nuw i8, ptr %0, i64 599
  store i8 1, ptr %58, align 1
  br label %59

59:                                               ; preds = %get_join_domain_min_rels.exit, %.critedge
  %.037 = phi ptr [ %.0.i, %get_join_domain_min_rels.exit ], [ %24, %.critedge ]
  %60 = tail call ptr @make_restrictinfo(ptr noundef %0, ptr noundef %.035, i1 noundef zeroext true, i1 noundef zeroext false, i1 noundef zeroext false, i1 noundef zeroext %25, i32 noundef %6, ptr noundef %.037, ptr noundef null, ptr noundef null) #7
  %61 = tail call i32 @bms_membership(ptr noundef %.037) #7
  %62 = icmp eq i32 %61, 2
  br i1 %62, label %63, label %65

63:                                               ; preds = %59
  %64 = tail call ptr @pull_var_clause(ptr noundef %.035, i32 noundef 26) #7
  tail call void @add_vars_to_targetlist(ptr noundef %0, ptr noundef %64, ptr noundef %.037)
  tail call void @list_free(ptr noundef %64) #7
  br label %65

65:                                               ; preds = %63, %59
  %66 = getelementptr inbounds nuw i8, ptr %60, i64 8
  %67 = load ptr, ptr %66, align 8
  %68 = getelementptr inbounds nuw i8, ptr %60, i64 18
  %69 = load i8, ptr %68, align 2, !range !4, !noundef !5
  %70 = trunc nuw i8 %69 to i1
  %.not.i.i = icmp eq ptr %67, null
  %or.cond.i = select i1 %70, i1 true, i1 %.not.i.i
  br i1 %or.cond.i, label %check_mergejoinable.exit, label %is_opclause.exit.i

is_opclause.exit.i:                               ; preds = %65
  %71 = load i32, ptr %67, align 4
  %72 = icmp eq i32 %71, 17
  br i1 %72, label %73, label %check_mergejoinable.exit

73:                                               ; preds = %is_opclause.exit.i
  %74 = getelementptr inbounds nuw i8, ptr %67, i64 32
  %75 = load ptr, ptr %74, align 8
  %.not.i10.i = icmp eq ptr %75, null
  br i1 %.not.i10.i, label %check_mergejoinable.exit, label %list_length.exit.i

list_length.exit.i:                               ; preds = %73
  %76 = getelementptr inbounds nuw i8, ptr %75, i64 4
  %77 = load i32, ptr %76, align 4
  %.not.i40 = icmp eq i32 %77, 2
  br i1 %.not.i40, label %78, label %check_mergejoinable.exit

78:                                               ; preds = %list_length.exit.i
  %79 = getelementptr inbounds nuw i8, ptr %67, i64 4
  %80 = load i32, ptr %79, align 4
  %81 = getelementptr i8, ptr %75, i64 16
  %.val.i = load ptr, ptr %81, align 8
  %82 = load ptr, ptr %.val.i, align 8
  %83 = tail call i32 @exprType(ptr noundef %82) #7
  %84 = tail call zeroext i1 @op_mergejoinable(i32 noundef %80, i32 noundef %83) #7
  br i1 %84, label %85, label %check_mergejoinable.exit

85:                                               ; preds = %78
  %86 = tail call zeroext i1 @contain_volatile_functions(ptr noundef nonnull %60) #7
  br i1 %86, label %check_mergejoinable.exit, label %87

87:                                               ; preds = %85
  %88 = tail call ptr @get_mergejoin_opfamilies(i32 noundef %80) #7
  %89 = getelementptr inbounds nuw i8, ptr %60, i64 144
  store ptr %88, ptr %89, align 8
  br label %check_mergejoinable.exit

check_mergejoinable.exit:                         ; preds = %65, %is_opclause.exit.i, %73, %list_length.exit.i, %78, %85, %87
  tail call void @distribute_restrictinfo_to_rels(ptr noundef %0, ptr noundef nonnull %60)
  br label %90

90:                                               ; preds = %21, %check_mergejoinable.exit
  %.1 = phi ptr [ %60, %check_mergejoinable.exit ], [ null, %21 ]
  ret ptr %.1
}